target datalayout = "e-m:e-p270:32:32-p271:32:32-p272:64:64-i64:64-i128:128-f80:128-n8:16:32:64-S128"
target triple = "x86_64-pc-linux-gnu"

%struct.expert_field = type { i32, i32 }

@ei_amf_loop = internal global %struct.expert_field zeroinitializer, align 4

; Function Attrs: null_pointer_is_valid sspstrong uwtable
define internal i32 @rtmpt_get_amf_length(ptr noundef %0, i32 noundef %1, ptr noundef %2) #0 {
  %4 = alloca i32, align 4
  %5 = alloca ptr, align 8
  %6 = alloca i32, align 4
  %7 = alloca ptr, align 8
  %8 = alloca i8, align 1
  %9 = alloca i32, align 4
  %10 = alloca i32, align 4
  %11 = alloca i32, align 4
  %12 = alloca i32, align 4
  %13 = alloca i32, align 4
  %14 = alloca i32, align 4
  store ptr %0, ptr %5, align 8
  store i32 %1, ptr %6, align 4
  store ptr %2, ptr %7, align 8
  call void @llvm.lifetime.start.p0(i64 1, ptr %8) #12
  call void @llvm.lifetime.start.p0(i64 4, ptr %9) #12
  %15 = load ptr, ptr %5, align 8
  %16 = load i32, ptr %6, align 4
  %17 = call i32 @tvb_reported_length_remaining(ptr noundef %15, i32 noundef %16)
  store i32 %17, ptr %9, align 4
  call void @llvm.lifetime.start.p0(i64 4, ptr %10) #12
  store i32 0, ptr %10, align 4
  call void @llvm.lifetime.start.p0(i64 4, ptr %11) #12
  store i32 0, ptr %11, align 4
  call void @llvm.lifetime.start.p0(i64 4, ptr %12) #12
  store i32 0, ptr %12, align 4
  call void @llvm.lifetime.start.p0(i64 4, ptr %13) #12
  store i32 1000, ptr %13, align 4
  br label %18

18:                                               ; preds = %145, %85, %3
  %19 = load i32, ptr %12, align 4
  %20 = icmp eq i32 %19, 0
  br i1 %20, label %24, label %21

21:                                               ; preds = %18
  %22 = load i32, ptr %10, align 4
  %23 = icmp ugt i32 %22, 0
  br label %24

24:                                               ; preds = %21, %18
  %25 = phi i1 [ true, %18 ], [ %23, %21 ]
  br i1 %25, label %26, label %149

26:                                               ; preds = %24
  %27 = load i32, ptr %13, align 4
  %28 = add i32 %27, -1
  store i32 %28, ptr %13, align 4
  %29 = icmp eq i32 %28, 0
  br i1 %29, label %30, label %33

30:                                               ; preds = %26
  %31 = load ptr, ptr %7, align 8
  %32 = call ptr @expert_add_info(ptr noundef null, ptr noundef %31, ptr noundef @ei_amf_loop)
  store i32 0, ptr %4, align 4
  store i32 1, ptr %14, align 4
  br label %151

33:                                               ; preds = %26
  %34 = load i32, ptr %10, align 4
  %35 = icmp ugt i32 %34, 0
  br i1 %35, label %36, label %63

36:                                               ; preds = %33
  %37 = load i32, ptr %9, align 4
  %38 = load i32, ptr %12, align 4
  %39 = sub i32 %37, %38
  %40 = icmp ult i32 %39, 2
  br i1 %40, label %41, label %43

41:                                               ; preds = %36
  %42 = load i32, ptr %9, align 4
  store i32 %42, ptr %4, align 4
  store i32 1, ptr %14, align 4
  br label %151

43:                                               ; preds = %36
  %44 = load ptr, ptr %5, align 8
  %45 = load i32, ptr %6, align 4
  %46 = load i32, ptr %12, align 4
  %47 = add i32 %45, %46
  %48 = call zeroext i16 @tvb_get_ntohs(ptr noundef %44, i32 noundef %47)
  %49 = zext i16 %48 to i32
  %50 = add i32 %49, 2
  store i32 %50, ptr %11, align 4
  %51 = load i32, ptr %9, align 4
  %52 = load i32, ptr %12, align 4
  %53 = sub i32 %51, %52
  %54 = load i32, ptr %11, align 4
  %55 = add i32 %54, 1
  %56 = icmp ult i32 %53, %55
  br i1 %56, label %57, label %59

57:                                               ; preds = %43
  %58 = load i32, ptr %9, align 4
  store i32 %58, ptr %4, align 4
  store i32 1, ptr %14, align 4
  br label %151

59:                                               ; preds = %43
  %60 = load i32, ptr %11, align 4
  %61 = load i32, ptr %12, align 4
  %62 = add i32 %61, %60
  store i32 %62, ptr %12, align 4
  br label %63

63:                                               ; preds = %59, %33
  %64 = load i32, ptr %9, align 4
  %65 = load i32, ptr %12, align 4
  %66 = sub i32 %64, %65
  %67 = icmp ult i32 %66, 1
  br i1 %67, label %68, label %70

68:                                               ; preds = %63
  %69 = load i32, ptr %9, align 4
  store i32 %69, ptr %4, align 4
  store i32 1, ptr %14, align 4
  br label %151

70:                                               ; preds = %63
  %71 = load ptr, ptr %5, align 8
  %72 = load i32, ptr %6, align 4
  %73 = load i32, ptr %12, align 4
  %74 = add i32 %72, %73
  %75 = call zeroext i8 @tvb_get_uint8(ptr noundef %71, i32 noundef %74)
  store i8 %75, ptr %8, align 1
  %76 = load i32, ptr %10, align 4
  %77 = icmp ugt i32 %76, 0
  br i1 %77, label %78, label %90

78:                                               ; preds = %70
  %79 = load i32, ptr %11, align 4
  %80 = icmp eq i32 %79, 2
  br i1 %80, label %81, label %90

81:                                               ; preds = %78
  %82 = load i8, ptr %8, align 1
  %83 = zext i8 %82 to i32
  %84 = icmp eq i32 %83, 9
  br i1 %84, label %85, label %90

85:                                               ; preds = %81
  %86 = load i32, ptr %12, align 4
  %87 = add i32 %86, 1
  store i32 %87, ptr %12, align 4
  %88 = load i32, ptr %10, align 4
  %89 = add i32 %88, -1
  store i32 %89, ptr %10, align 4
  br label %18, !llvm.loop !18

90:                                               ; preds = %81, %78, %70
  %91 = load i8, ptr %8, align 1
  %92 = zext i8 %91 to i32
  switch i32 %92, label %135 [
    i32 0, label %93
    i32 1, label %94
    i32 2, label %95
    i32 5, label %111
    i32 6, label %111
    i32 13, label %111
    i32 11, label %112
    i32 12, label %113
    i32 15, label %113
    i32 34, label %128
    i32 3, label %129
    i32 8, label %132
  ]

93:                                               ; preds = %90
  store i32 9, ptr %11, align 4
  br label %137

94:                                               ; preds = %90
  store i32 2, ptr %11, align 4
  br label %137

95:                                               ; preds = %90
  %96 = load i32, ptr %9, align 4
  %97 = load i32, ptr %12, align 4
  %98 = sub i32 %96, %97
  %99 = icmp ult i32 %98, 3
  br i1 %99, label %100, label %102

100:                                              ; preds = %95
  %101 = load i32, ptr %9, align 4
  store i32 %101, ptr %4, align 4
  store i32 1, ptr %14, align 4
  br label %151

102:                                              ; preds = %95
  %103 = load ptr, ptr %5, align 8
  %104 = load i32, ptr %6, align 4
  %105 = load i32, ptr %12, align 4
  %106 = add i32 %104, %105
  %107 = add i32 %106, 1
  %108 = call zeroext i16 @tvb_get_ntohs(ptr noundef %103, i32 noundef %107)
  %109 = zext i16 %108 to i32
  %110 = add i32 %109, 3
  store i32 %110, ptr %11, align 4
  br label %137

111:                                              ; preds = %90, %90, %90
  store i32 1, ptr %11, align 4
  br label %137

112:                                              ; preds = %90
  store i32 11, ptr %11, align 4
  br label %137

113:                                              ; preds = %90, %90
  %114 = load i32, ptr %9, align 4
  %115 = load i32, ptr %12, align 4
  %116 = sub i32 %114, %115
  %117 = icmp ult i32 %116, 5
  br i1 %117, label %118, label %120

118:                                              ; preds = %113
  %119 = load i32, ptr %9, align 4
  store i32 %119, ptr %4, align 4
  store i32 1, ptr %14, align 4
  br label %151

120:                                              ; preds = %113
  %121 = load ptr, ptr %5, align 8
  %122 = load i32, ptr %6, align 4
  %123 = load i32, ptr %12, align 4
  %124 = add i32 %122, %123
  %125 = add i32 %124, 1
  %126 = call i32 @tvb_get_ntohl(ptr noundef %121, i32 noundef %125)
  %127 = add i32 %126, 5
  store i32 %127, ptr %11, align 4
  br label %137

128:                                              ; preds = %90
  store i32 9, ptr %11, align 4
  br label %137

129:                                              ; preds = %90
  store i32 1, ptr %11, align 4
  %130 = load i32, ptr %10, align 4
  %131 = add i32 %130, 1
  store i32 %131, ptr %10, align 4
  br label %137

132:                                              ; preds = %90
  store i32 5, ptr %11, align 4
  %133 = load i32, ptr %10, align 4
  %134 = add i32 %133, 1
  store i32 %134, ptr %10, align 4
  br label %137

135:                                              ; preds = %90
  %136 = load i32, ptr %9, align 4
  store i32 %136, ptr %4, align 4
  store i32 1, ptr %14, align 4
  br label %151

137:                                              ; preds = %132, %129, %128, %120, %112, %111, %102, %94, %93
  %138 = load i32, ptr %9, align 4
  %139 = load i32, ptr %12, align 4
  %140 = sub i32 %138, %139
  %141 = load i32, ptr %11, align 4
  %142 = icmp ult i32 %140, %141
  br i1 %142, label %143, label %145

143:                                              ; preds = %137
  %144 = load i32, ptr %9, align 4
  store i32 %144, ptr %4, align 4
  store i32 1, ptr %14, align 4
  br label %151

145:                                              ; preds = %137
  %146 = load i32, ptr %11, align 4
  %147 = load i32, ptr %12, align 4
  %148 = add i32 %147, %146
  store i32 %148, ptr %12, align 4
  br label %18, !llvm.loop !18

149:                                              ; preds = %24
  %150 = load i32, ptr %12, align 4
  store i32 %150, ptr %4, align 4
  store i32 1, ptr %14, align 4
  br label %151

151:                                              ; preds = %149, %143, %135, %118, %100, %68, %57, %41, %30
  call void @llvm.lifetime.end.p0(i64 4, ptr %13) #12
  call void @llvm.lifetime.end.p0(i64 4, ptr %12) #12
  call void @llvm.lifetime.end.p0(i64 4, ptr %11) #12
  call void @llvm.lifetime.end.p0(i64 4, ptr %10) #12
  call void @llvm.lifetime.end.p0(i64 4, ptr %9) #12
  call void @llvm.lifetime.end.p0(i64 1, ptr %8) #12
  %152 = load i32, ptr %4, align 4
  ret i32 %152
}